target datalayout = "e-m:e-p270:32:32-p271:32:32-p272:64:64-i64:64-i128:128-f80:128-n8:16:32:64-S128"
target triple = "x86_64-pc-linux-gnu"

%struct.SimpleDateData = type { i32, i32, i64, float, i32, i32 }
%struct.ComplexDateData = type { i32, i32, i64, float, i32, i32, i32, i32, i64 }

@positive_inf = internal global double 0.000000e+00, align 8

; Function Attrs: nounwind sspstrong uwtable
define internal void @c_civil_to_jd(i32 noundef %0, i32 noundef %1, i32 noundef %2, double noundef %3, ptr noundef %4, ptr noundef %5) #0 {
  %7 = alloca i32, align 4
  %8 = alloca i32, align 4
  %9 = alloca i32, align 4
  %10 = alloca double, align 8
  %11 = alloca ptr, align 8
  %12 = alloca ptr, align 8
  %13 = alloca double, align 8
  %14 = alloca double, align 8
  %15 = alloca double, align 8
  store i32 %0, ptr %7, align 4, !tbaa !19
  store i32 %1, ptr %8, align 4, !tbaa !19
  store i32 %2, ptr %9, align 4, !tbaa !19
  store double %3, ptr %10, align 8, !tbaa !10
  store ptr %4, ptr %11, align 8, !tbaa !71
  store ptr %5, ptr %12, align 8, !tbaa !71
  call void @llvm.lifetime.start.p0(i64 8, ptr %13) #23
  call void @llvm.lifetime.start.p0(i64 8, ptr %14) #23
  call void @llvm.lifetime.start.p0(i64 8, ptr %15) #23
  %16 = load i32, ptr %8, align 4, !tbaa !19
  %17 = icmp sle i32 %16, 2
  br i1 %17, label %18, label %23

18:                                               ; preds = %6
  %19 = load i32, ptr %7, align 4, !tbaa !19
  %20 = sub nsw i32 %19, 1
  store i32 %20, ptr %7, align 4, !tbaa !19
  %21 = load i32, ptr %8, align 4, !tbaa !19
  %22 = add nsw i32 %21, 12
  store i32 %22, ptr %8, align 4, !tbaa !19
  br label %23

23:                                               ; preds = %18, %6
  %24 = load i32, ptr %7, align 4, !tbaa !19
  %25 = sitofp i32 %24 to double
  %26 = fdiv double %25, 1.000000e+02
  %27 = call double @llvm.floor.f64(double %26)
  store double %27, ptr %13, align 8, !tbaa !10
  %28 = load double, ptr %13, align 8, !tbaa !10
  %29 = fsub double 2.000000e+00, %28
  %30 = load double, ptr %13, align 8, !tbaa !10
  %31 = fdiv double %30, 4.000000e+00
  %32 = call double @llvm.floor.f64(double %31)
  %33 = fadd double %29, %32
  store double %33, ptr %14, align 8, !tbaa !10
  %34 = load i32, ptr %7, align 4, !tbaa !19
  %35 = add nsw i32 %34, 4716
  %36 = sitofp i32 %35 to double
  %37 = fmul double 3.652500e+02, %36
  %38 = call double @llvm.floor.f64(double %37)
  %39 = load i32, ptr %8, align 4, !tbaa !19
  %40 = add nsw i32 %39, 1
  %41 = sitofp i32 %40 to double
  %42 = fmul double 3.060010e+01, %41
  %43 = call double @llvm.floor.f64(double %42)
  %44 = fadd double %38, %43
  %45 = load i32, ptr %9, align 4, !tbaa !19
  %46 = sitofp i32 %45 to double
  %47 = fadd double %44, %46
  %48 = load double, ptr %14, align 8, !tbaa !10
  %49 = fadd double %47, %48
  %50 = fsub double %49, 1.524000e+03
  store double %50, ptr %15, align 8, !tbaa !10
  %51 = load double, ptr %15, align 8, !tbaa !10
  %52 = load double, ptr %10, align 8, !tbaa !10
  %53 = fcmp olt double %51, %52
  br i1 %53, label %54, label %59

54:                                               ; preds = %23
  %55 = load double, ptr %14, align 8, !tbaa !10
  %56 = load double, ptr %15, align 8, !tbaa !10
  %57 = fsub double %56, %55
  store double %57, ptr %15, align 8, !tbaa !10
  %58 = load ptr, ptr %12, align 8, !tbaa !71
  store i32 0, ptr %58, align 4, !tbaa !19
  br label %61

59:                                               ; preds = %23
  %60 = load ptr, ptr %12, align 8, !tbaa !71
  store i32 1, ptr %60, align 4, !tbaa !19
  br label %61

61:                                               ; preds = %59, %54
  %62 = load double, ptr %15, align 8, !tbaa !10
  %63 = fptosi double %62 to i32
  %64 = load ptr, ptr %11, align 8, !tbaa !71
  store i32 %63, ptr %64, align 4, !tbaa !19
  call void @llvm.lifetime.end.p0(i64 8, ptr %15) #23
  call void @llvm.lifetime.end.p0(i64 8, ptr %14) #23
  call void @llvm.lifetime.end.p0(i64 8, ptr %13) #23
  ret void
}

; Function Attrs: inlinehint nounwind sspstrong uwtable
define internal void @get_s_jd(ptr noundef %0) #3 {
  %2 = alloca ptr, align 8
  %3 = alloca i32, align 4
  %4 = alloca i32, align 4
  store ptr %0, ptr %2, align 8, !tbaa !27
  %5 = load ptr, ptr %2, align 8, !tbaa !27
  %6 = load i32, ptr %5, align 8, !tbaa !38
  %7 = and i32 %6, 1
  %8 = icmp ne i32 %7, 0
  br i1 %8, label %32, label %9

9:                                                ; preds = %1
  call void @llvm.lifetime.start.p0(i64 4, ptr %3) #23
  call void @llvm.lifetime.start.p0(i64 4, ptr %4) #23
  %10 = load ptr, ptr %2, align 8, !tbaa !27
  %11 = getelementptr inbounds nuw %struct.SimpleDateData, ptr %10, i32 0, i32 4
  %12 = load i32, ptr %11, align 4, !tbaa !38
  %13 = load ptr, ptr %2, align 8, !tbaa !27
  %14 = getelementptr inbounds nuw %struct.SimpleDateData, ptr %13, i32 0, i32 5
  %15 = load i32, ptr %14, align 8, !tbaa !38
  %16 = lshr i32 %15, 22
  %17 = and i32 %16, 15
  %18 = load ptr, ptr %2, align 8, !tbaa !27
  %19 = getelementptr inbounds nuw %struct.SimpleDateData, ptr %18, i32 0, i32 5
  %20 = load i32, ptr %19, align 8, !tbaa !38
  %21 = lshr i32 %20, 17
  %22 = and i32 %21, 31
  %23 = load ptr, ptr %2, align 8, !tbaa !27
  %24 = call double @s_virtual_sg(ptr noundef %23)
  call void @c_civil_to_jd(i32 noundef %12, i32 noundef %17, i32 noundef %22, double noundef %24, ptr noundef %3, ptr noundef %4)
  %25 = load i32, ptr %3, align 4, !tbaa !19
  %26 = load ptr, ptr %2, align 8, !tbaa !27
  %27 = getelementptr inbounds nuw %struct.SimpleDateData, ptr %26, i32 0, i32 1
  store i32 %25, ptr %27, align 4, !tbaa !38
  %28 = load ptr, ptr %2, align 8, !tbaa !27
  %29 = getelementptr inbounds nuw %struct.SimpleDateData, ptr %28, i32 0, i32 0
  %30 = load i32, ptr %29, align 8, !tbaa !38
  %31 = or i32 %30, 1
  store i32 %31, ptr %29, align 8, !tbaa !38
  call void @llvm.lifetime.end.p0(i64 4, ptr %4) #23
  call void @llvm.lifetime.end.p0(i64 4, ptr %3) #23
  br label %32

32:                                               ; preds = %9, %1
  ret void
}

; Function Attrs: nounwind sspstrong uwtable
define internal i32 @m_julian_p(ptr noundef %0) #0 {
  %2 = alloca i32, align 4
  %3 = alloca ptr, align 8
  %4 = alloca i32, align 4
  %5 = alloca double, align 8
  %6 = alloca i32, align 4
  store ptr %0, ptr %3, align 8, !tbaa !27
  call void @llvm.lifetime.start.p0(i64 4, ptr %4) #23
  call void @llvm.lifetime.start.p0(i64 8, ptr %5) #23
  %7 = load ptr, ptr %3, align 8, !tbaa !27
  %8 = load i32, ptr %7, align 8, !tbaa !38
  %9 = and i32 %8, 128
  %10 = icmp ne i32 %9, 0
  br i1 %10, label %18, label %11

11:                                               ; preds = %1
  %12 = load ptr, ptr %3, align 8, !tbaa !27
  call void @get_s_jd(ptr noundef %12)
  %13 = load ptr, ptr %3, align 8, !tbaa !27
  %14 = getelementptr inbounds nuw %struct.SimpleDateData, ptr %13, i32 0, i32 1
  %15 = load i32, ptr %14, align 4, !tbaa !38
  store i32 %15, ptr %4, align 4, !tbaa !19
  %16 = load ptr, ptr %3, align 8, !tbaa !27
  %17 = call double @s_virtual_sg(ptr noundef %16)
  store double %17, ptr %5, align 8, !tbaa !10
  br label %25

18:                                               ; preds = %1
  %19 = load ptr, ptr %3, align 8, !tbaa !27
  call void @get_c_jd(ptr noundef %19)
  %20 = load ptr, ptr %3, align 8, !tbaa !27
  %21 = getelementptr inbounds nuw %struct.ComplexDateData, ptr %20, i32 0, i32 1
  %22 = load i32, ptr %21, align 4, !tbaa !38
  store i32 %22, ptr %4, align 4, !tbaa !19
  %23 = load ptr, ptr %3, align 8, !tbaa !27
  %24 = call double @c_virtual_sg(ptr noundef %23)
  store double %24, ptr %5, align 8, !tbaa !10
  br label %25

25:                                               ; preds = %18, %11
  %26 = load double, ptr %5, align 8, !tbaa !10
  %27 = call double @llvm.fabs.f64(double %26) #28
  %28 = fcmp oeq double %27, 0x7FF0000000000000
  %29 = bitcast double %26 to i64
  %30 = icmp slt i64 %29, 0
  %31 = select i1 %30, i32 -1, i32 1
  %32 = select i1 %28, i32 %31, i32 0
  %33 = icmp ne i32 %32, 0
  br i1 %33, label %34, label %39

34:                                               ; preds = %25
  %35 = load double, ptr %5, align 8, !tbaa !10
  %36 = load double, ptr @positive_inf, align 8, !tbaa !10
  %37 = fcmp oeq double %35, %36
  %38 = zext i1 %37 to i32
  store i32 %38, ptr %2, align 4
  store i32 1, ptr %6, align 4
  br label %45

39:                                               ; preds = %25
  %40 = load i32, ptr %4, align 4, !tbaa !19
  %41 = sitofp i32 %40 to double
  %42 = load double, ptr %5, align 8, !tbaa !10
  %43 = fcmp olt double %41, %42
  %44 = zext i1 %43 to i32
  store i32 %44, ptr %2, align 4
  store i32 1, ptr %6, align 4
  br label %45

45:                                               ; preds = %39, %34
  call void @llvm.lifetime.end.p0(i64 8, ptr %5) #23
  call void @llvm.lifetime.end.p0(i64 4, ptr %4) #23
  %46 = load i32, ptr %2, align 4
  ret i32 %46
}