; Function Attrs: nounwind sspstrong uwtable
define internal fastcc range(i32 0, 2) i32 @m_julian_p(ptr noundef captures(none) %0) unnamed_addr #0 {
  %2 = load i32, ptr %0, align 8, !tbaa !47
  %3 = and i32 %2, 128
  %.not = icmp eq i32 %3, 0
  br i1 %.not, label %4, label %47

4:                                                ; preds = %1
  %5 = and i32 %2, 1
  %.not.i = icmp eq i32 %5, 0
  br i1 %.not.i, label %6, label %.get_s_jd.exit_crit_edge

.get_s_jd.exit_crit_edge:                         ; preds = %4
  %.phi.trans.insert = getelementptr inbounds nuw i8, ptr %0, i64 4
  %.pre = load i32, ptr %.phi.trans.insert, align 4, !tbaa !47
  br label %get_s_jd.exit

6:                                                ; preds = %4
  %7 = getelementptr inbounds nuw i8, ptr %0, i64 20
  %8 = load i32, ptr %7, align 4, !tbaa !47
  %9 = getelementptr inbounds nuw i8, ptr %0, i64 24
  %10 = load i32, ptr %9, align 8, !tbaa !47
  %11 = lshr i32 %10, 22
  %12 = and i32 %11, 15
  %13 = lshr i32 %10, 17
  %14 = and i32 %13, 31
  %15 = tail call fastcc double @s_virtual_sg(ptr noundef nonnull %0)
  %16 = icmp samesign ult i32 %12, 3
  %17 = add nuw nsw i32 %12, 12
  %.018.i.i = select i1 %16, i32 %17, i32 %12
  %18 = sext i1 %16 to i32
  %.017.i.i = add nsw i32 %8, %18
  %19 = sitofp i32 %.017.i.i to double
  %20 = fdiv double %19, 1.000000e+02
  %21 = tail call double @llvm.floor.f64(double %20)
  %22 = fsub double 2.000000e+00, %21
  %23 = fmul double %21, 2.500000e-01
  %24 = tail call double @llvm.floor.f64(double %23)
  %25 = fadd double %22, %24
  %26 = add nsw i32 %.017.i.i, 4716
  %27 = sitofp i32 %26 to double
  %28 = fmul double %27, 3.652500e+02
  %29 = tail call double @llvm.floor.f64(double %28)
  %30 = add nuw nsw i32 %.018.i.i, 1
  %31 = uitofp nneg i32 %30 to double
  %32 = fmul double %31, 3.060010e+01
  %33 = tail call double @llvm.floor.f64(double %32)
  %34 = fadd double %33, %29
  %35 = uitofp nneg i32 %14 to double
  %36 = fadd double %34, %35
  %37 = fadd double %36, %25
  %38 = fadd double %37, -1.524000e+03
  %39 = fcmp uge double %38, %15
  %40 = fsub double %38, %25
  %.0.i.i = select i1 %39, double %38, double %40
  %41 = fptosi double %.0.i.i to i32
  %42 = getelementptr inbounds nuw i8, ptr %0, i64 4
  store i32 %41, ptr %42, align 4, !tbaa !47
  %43 = load i32, ptr %0, align 8, !tbaa !47
  %44 = or i32 %43, 1
  store i32 %44, ptr %0, align 8, !tbaa !47
  br label %get_s_jd.exit

get_s_jd.exit:                                    ; preds = %.get_s_jd.exit_crit_edge, %6
  %45 = phi i32 [ %.pre, %.get_s_jd.exit_crit_edge ], [ %41, %6 ]
  %46 = tail call fastcc double @s_virtual_sg(ptr noundef nonnull %0)
  br label %51

47:                                               ; preds = %1
  tail call fastcc void @get_c_jd(ptr noundef nonnull %0)
  %48 = getelementptr inbounds nuw i8, ptr %0, i64 4
  %49 = load i32, ptr %48, align 4, !tbaa !47
  %50 = tail call fastcc double @c_virtual_sg(ptr noundef nonnull %0)
  br label %51

51:                                               ; preds = %47, %get_s_jd.exit
  %.011 = phi i32 [ %49, %47 ], [ %45, %get_s_jd.exit ]
  %.0 = phi double [ %50, %47 ], [ %46, %get_s_jd.exit ]
  %52 = tail call double @llvm.fabs.f64(double %.0) #23
  %53 = fcmp oeq double %52, 0x7FF0000000000000
  %54 = load double, ptr @positive_inf, align 8
  %55 = fcmp oeq double %.0, %54
  %56 = sitofp i32 %.011 to double
  %57 = fcmp ogt double %.0, %56
  %.012.in = select i1 %53, i1 %55, i1 %57
  %.012 = zext i1 %.012.in to i32
  ret i32 %.012
}